target datalayout = "e-m:e-p270:32:32-p271:32:32-p272:64:64-i64:64-i128:128-f80:128-n8:16:32:64-S128"
target triple = "x86_64-pc-linux-gnu"

%struct.stat = type { i64, i64, i64, i32, i32, i32, i32, i64, i64, i64, i64, %struct.timespec, %struct.timespec, %struct.timespec, [3 x i64] }
%struct.timespec = type { i64, i64 }
%struct._internal_exr_filehandle = type { i32 }

; Function Attrs: nounwind uwtable
define internal i64 @default_query_size_func(ptr noundef %0, ptr noundef %1) #0 {
  %3 = alloca ptr, align 8
  %4 = alloca ptr, align 8
  %5 = alloca %struct.stat, align 8
  %6 = alloca ptr, align 8
  %7 = alloca i64, align 8
  %8 = alloca i32, align 4
  store ptr %0, ptr %3, align 8, !tbaa !12
  store ptr %1, ptr %4, align 8, !tbaa !45
  call void @llvm.lifetime.start.p0(i64 144, ptr %5) #9
  call void @llvm.lifetime.start.p0(i64 8, ptr %6) #9
  %9 = load ptr, ptr %4, align 8, !tbaa !45
  store ptr %9, ptr %6, align 8, !tbaa !54
  call void @llvm.lifetime.start.p0(i64 8, ptr %7) #9
  store i64 -1, ptr %7, align 8, !tbaa !46
  %10 = load ptr, ptr %6, align 8, !tbaa !54
  %11 = getelementptr inbounds nuw %struct._internal_exr_filehandle, ptr %10, i32 0, i32 0
  %12 = load i32, ptr %11, align 4, !tbaa !56
  %13 = icmp sge i32 %12, 0
  br i1 %13, label %14, label %25

14:                                               ; preds = %2
  call void @llvm.lifetime.start.p0(i64 4, ptr %8) #9
  %15 = load ptr, ptr %6, align 8, !tbaa !54
  %16 = getelementptr inbounds nuw %struct._internal_exr_filehandle, ptr %15, i32 0, i32 0
  %17 = load i32, ptr %16, align 4, !tbaa !56
  %18 = call i32 @fstat(i32 noundef %17, ptr noundef %5) #9
  store i32 %18, ptr %8, align 4, !tbaa !10
  %19 = load i32, ptr %8, align 4, !tbaa !10
  %20 = icmp eq i32 %19, 0
  br i1 %20, label %21, label %24

21:                                               ; preds = %14
  %22 = getelementptr inbounds nuw %struct.stat, ptr %5, i32 0, i32 8
  %23 = load i64, ptr %22, align 8, !tbaa !58
  store i64 %23, ptr %7, align 8, !tbaa !46
  br label %24

24:                                               ; preds = %21, %14
  call void @llvm.lifetime.end.p0(i64 4, ptr %8) #9
  br label %25

25:                                               ; preds = %24, %2
  %26 = load i64, ptr %7, align 8, !tbaa !46
  call void @llvm.lifetime.end.p0(i64 8, ptr %7) #9
  call void @llvm.lifetime.end.p0(i64 8, ptr %6) #9
  call void @llvm.lifetime.end.p0(i64 144, ptr %5) #9
  ret i64 %26
}