; Function Attrs: nofree nounwind uwtable
define internal i64 @default_query_size_func(ptr readnone captures(none) %0, ptr noundef readonly captures(none) %1) #3 {
  %3 = alloca %struct.stat, align 8
  call void @llvm.lifetime.start.p0(i64 144, ptr nonnull %3) #13
  %4 = load i32, ptr %1, align 4, !tbaa !45
  %5 = icmp sgt i32 %4, -1
  br i1 %5, label %6, label %11

6:                                                ; preds = %2
  %7 = call i32 @fstat(i32 noundef %4, ptr noundef nonnull %3) #13
  %8 = icmp eq i32 %7, 0
  %9 = getelementptr inbounds nuw i8, ptr %3, i64 48
  %10 = load i64, ptr %9, align 8
  %.1 = select i1 %8, i64 %10, i64 -1
  br label %11

11:                                               ; preds = %6, %2
  %.0 = phi i64 [ %.1, %6 ], [ -1, %2 ]
  call void @llvm.lifetime.end.p0(i64 144, ptr nonnull %3) #13
  ret i64 %.0
}